target datalayout = "e-m:e-p270:32:32-p271:32:32-p272:64:64-i64:64-i128:128-f80:128-n8:16:32:64-S128"
target triple = "x86_64-pc-linux-gnu"

%struct._zval_struct = type { %union._zend_value, %union.anon, %union.anon.3 }
%union._zend_value = type { i64 }
%union.anon = type { i32 }
%union.anon.3 = type { i32 }
%struct._zend_refcounted_h = type { i32, %union.anon.4 }
%union.anon.4 = type { i32 }
%struct._zend_string = type { %struct._zend_refcounted_h, i64, i64, [1 x i8] }

; Function Attrs: nounwind uwtable
define internal i32 @ct_eval_del_obj_prop(ptr noundef %0, ptr noundef %1) #0 {
  %3 = alloca i1, align 1
  %4 = alloca ptr, align 8
  %5 = alloca i64, align 8
  %6 = alloca ptr, align 8
  %7 = alloca ptr, align 8
  %8 = alloca i32, align 4
  %9 = alloca ptr, align 8
  %10 = alloca ptr, align 8
  %11 = alloca i64, align 8
  %12 = alloca ptr, align 8
  %13 = alloca i32, align 4
  %14 = alloca ptr, align 8
  %15 = alloca ptr, align 8
  store ptr %0, ptr %14, align 8
  store ptr %1, ptr %15, align 8
  %16 = load ptr, ptr %15, align 8
  store ptr %16, ptr %12, align 8
  %17 = load ptr, ptr %12, align 8
  %18 = getelementptr inbounds %struct._zval_struct, ptr %17, i32 0, i32 1
  %19 = load i8, ptr %18, align 8
  %20 = zext i8 %19 to i32
  switch i32 %20, label %80 [
    i32 6, label %21
  ]

21:                                               ; preds = %2
  %22 = load ptr, ptr %14, align 8
  %23 = getelementptr inbounds %struct._zval_struct, ptr %22, i32 0, i32 0
  %24 = load ptr, ptr %23, align 8
  %25 = load ptr, ptr %15, align 8
  %26 = getelementptr inbounds %struct._zval_struct, ptr %25, i32 0, i32 0
  %27 = load ptr, ptr %26, align 8
  store ptr %24, ptr %9, align 8
  store ptr %27, ptr %10, align 8
  %28 = load ptr, ptr %10, align 8
  %29 = getelementptr inbounds %struct._zend_string, ptr %28, i32 0, i32 3
  %30 = load ptr, ptr %10, align 8
  %31 = getelementptr inbounds %struct._zend_string, ptr %30, i32 0, i32 2
  %32 = load i64, ptr %31, align 8
  store ptr %29, ptr %4, align 8
  store i64 %32, ptr %5, align 8
  store ptr %11, ptr %6, align 8
  %33 = load ptr, ptr %4, align 8
  store ptr %33, ptr %7, align 8
  %34 = load ptr, ptr %7, align 8
  %35 = load i8, ptr %34, align 1
  %36 = sext i8 %35 to i32
  %37 = icmp sgt i32 %36, 57
  br i1 %37, label %38, label %39

38:                                               ; preds = %21
  store i1 false, ptr %3, align 1
  br label %69

39:                                               ; preds = %21
  %40 = load ptr, ptr %7, align 8
  %41 = load i8, ptr %40, align 1
  %42 = sext i8 %41 to i32
  %43 = icmp slt i32 %42, 48
  br i1 %43, label %44, label %64

44:                                               ; preds = %39
  %45 = load ptr, ptr %7, align 8
  %46 = load i8, ptr %45, align 1
  %47 = sext i8 %46 to i32
  %48 = icmp ne i32 %47, 45
  br i1 %48, label %49, label %50

49:                                               ; preds = %44
  store i1 false, ptr %3, align 1
  br label %69

50:                                               ; preds = %44
  %51 = load ptr, ptr %7, align 8
  %52 = getelementptr inbounds i8, ptr %51, i32 1
  store ptr %52, ptr %7, align 8
  %53 = load ptr, ptr %7, align 8
  %54 = load i8, ptr %53, align 1
  %55 = sext i8 %54 to i32
  %56 = icmp sgt i32 %55, 57
  br i1 %56, label %62, label %57

57:                                               ; preds = %50
  %58 = load ptr, ptr %7, align 8
  %59 = load i8, ptr %58, align 1
  %60 = sext i8 %59 to i32
  %61 = icmp slt i32 %60, 48
  br i1 %61, label %62, label %63

62:                                               ; preds = %57, %50
  store i1 false, ptr %3, align 1
  br label %69

63:                                               ; preds = %57
  br label %64

64:                                               ; preds = %63, %39
  %65 = load ptr, ptr %4, align 8
  %66 = load i64, ptr %5, align 8
  %67 = load ptr, ptr %6, align 8
  %68 = call zeroext i1 @_zend_handle_numeric_str_ex(ptr noundef %65, i64 noundef %66, ptr noundef %67) #10
  store i1 %68, ptr %3, align 1
  br label %69

69:                                               ; preds = %64, %62, %49, %38
  %70 = load i1, ptr %3, align 1
  br i1 %70, label %71, label %75

71:                                               ; preds = %69
  %72 = load ptr, ptr %9, align 8
  %73 = load i64, ptr %11, align 8
  %74 = call i32 @zend_hash_index_del(ptr noundef %72, i64 noundef %73) #10
  store i32 %74, ptr %8, align 4
  br label %79

75:                                               ; preds = %69
  %76 = load ptr, ptr %9, align 8
  %77 = load ptr, ptr %10, align 8
  %78 = call i32 @zend_hash_del(ptr noundef %76, ptr noundef %77) #10
  store i32 %78, ptr %8, align 4
  br label %79

79:                                               ; preds = %75, %71
  br label %81

80:                                               ; preds = %2
  store i32 -1, ptr %13, align 4
  br label %82

81:                                               ; preds = %79
  store i32 0, ptr %13, align 4
  br label %82

82:                                               ; preds = %81, %80
  %83 = load i32, ptr %13, align 4
  ret i32 %83
}