; Function Attrs: nounwind uwtable
define internal fastcc noundef i32 @ct_eval_del_obj_prop(ptr %.0.val, ptr nocapture noundef readonly %0) unnamed_addr #0 {
  %2 = alloca i64, align 8
  %3 = getelementptr inbounds i8, ptr %0, i64 8
  %4 = load i8, ptr %3, align 8
  %cond = icmp eq i8 %4, 6
  br i1 %cond, label %5, label %25

5:                                                ; preds = %1
  %6 = load ptr, ptr %0, align 8
  %7 = getelementptr inbounds i8, ptr %6, i64 24
  %8 = getelementptr inbounds i8, ptr %6, i64 16
  %9 = load i64, ptr %8, align 8
  %10 = load i8, ptr %7, align 1
  %11 = icmp sgt i8 %10, 57
  br i1 %11, label %.critedge, label %12

12:                                               ; preds = %5
  %13 = icmp slt i8 %10, 48
  br i1 %13, label %14, label %19

14:                                               ; preds = %12
  %.not = icmp eq i8 %10, 45
  br i1 %.not, label %15, label %.critedge

15:                                               ; preds = %14
  %16 = getelementptr inbounds i8, ptr %6, i64 25
  %17 = load i8, ptr %16, align 1
  %18 = add i8 %17, -58
  %or.cond = icmp ult i8 %18, -10
  br i1 %or.cond, label %.critedge, label %19

19:                                               ; preds = %15, %12
  %20 = call zeroext i1 @_zend_handle_numeric_str_ex(ptr noundef nonnull %7, i64 noundef %9, ptr noundef nonnull %2) #13
  br i1 %20, label %21, label %.critedge

21:                                               ; preds = %19
  %22 = load i64, ptr %2, align 8
  %23 = call i32 @zend_hash_index_del(ptr noundef %.0.val, i64 noundef %22) #13
  br label %25

.critedge:                                        ; preds = %5, %14, %15, %19
  %24 = call i32 @zend_hash_del(ptr noundef %.0.val, ptr noundef nonnull %6) #13
  br label %25

25:                                               ; preds = %.critedge, %21, %1
  %.020 = phi i32 [ -1, %1 ], [ 0, %21 ], [ 0, %.critedge ]
  ret i32 %.020
}